target datalayout = "e-m:e-p270:32:32-p271:32:32-p272:64:64-i64:64-i128:128-f80:128-n8:16:32:64-S128"
target triple = "x86_64-unknown-linux-gnu"

%"class.sat::literal" = type { i32 }
%"class.sat::drat" = type { ptr, %class.svector, ptr, %"class.sat::clause_allocator", ptr, ptr, %class.svector.5, %class.svector.7, %class.vector.9, %class.svector.10, i8, i8, i8, i8, i8, %"struct.sat::drat::stats" }
%class.svector = type { %class.vector }
%class.vector = type { ptr }
%"class.sat::clause_allocator" = type { %class.sat_allocator, %class.id_gen }
%class.sat_allocator = type { ptr, i64, %class.ptr_vector, ptr, [65 x %class.ptr_vector.1] }
%class.ptr_vector = type { %class.vector.0 }
%class.vector.0 = type { ptr }
%class.ptr_vector.1 = type { %class.vector.2 }
%class.vector.2 = type { ptr }
%class.id_gen = type { i32, %class.svector.3 }
%class.svector.3 = type { %class.vector.4 }
%class.vector.4 = type { ptr }
%class.svector.5 = type { %class.vector.6 }
%class.vector.6 = type { ptr }
%class.svector.7 = type { %class.vector.8 }
%class.vector.8 = type { ptr }
%class.vector.9 = type { ptr }
%class.svector.10 = type { %class.vector.11 }
%class.vector.11 = type { ptr }
%"struct.sat::drat::stats" = type { i32, i32, i32, i32 }
%class.approx_set_tpl = type { i32 }
%"struct.std::pair" = type { ptr, %"class.sat::status" }
%"class.sat::status" = type { i32, i32, ptr }
%"class.sat::clause" = type { i32, i32, i32, %class.approx_set_tpl, i32, [0 x %"class.sat::literal"] }

; Function Attrs: mustprogress nounwind uwtable
define linkonce_odr hidden noundef zeroext i1 @_ZN3sateqERKNS_7literalES2_(ptr noundef nonnull align 4 dereferenceable(4) %l1, ptr noundef nonnull align 4 dereferenceable(4) %l2) #4 comdat {
entry:
  %l1.addr = alloca ptr, align 8
  %l2.addr = alloca ptr, align 8
  store ptr %l1, ptr %l1.addr, align 8
  store ptr %l2, ptr %l2.addr, align 8
  %0 = load ptr, ptr %l1.addr, align 8
  %m_val = getelementptr inbounds %"class.sat::literal", ptr %0, i32 0, i32 0
  %1 = load i32, ptr %m_val, align 4
  %2 = load ptr, ptr %l2.addr, align 8
  %m_val1 = getelementptr inbounds %"class.sat::literal", ptr %2, i32 0, i32 0
  %3 = load i32, ptr %m_val1, align 4
  %cmp = icmp eq i32 %1, %3
  ret i1 %cmp
}

; Function Attrs: mustprogress nounwind uwtable
define linkonce_odr hidden noundef ptr @_ZNK3sat6clause3endEv(ptr noundef nonnull align 4 dereferenceable(20) %this) #4 comdat align 2 {
entry:
  %this.addr = alloca ptr, align 8
  store ptr %this, ptr %this.addr, align 8
  %this1 = load ptr, ptr %this.addr, align 8
  %m_lits = getelementptr inbounds %"class.sat::clause", ptr %this1, i32 0, i32 5
  %arraydecay = getelementptr inbounds [0 x %"class.sat::literal"], ptr %m_lits, i64 0, i64 0
  %m_size = getelementptr inbounds %"class.sat::clause", ptr %this1, i32 0, i32 1
  %0 = load i32, ptr %m_size, align 4
  %idx.ext = zext i32 %0 to i64
  %add.ptr = getelementptr inbounds %"class.sat::literal", ptr %arraydecay, i64 %idx.ext
  ret ptr %add.ptr
}

; Function Attrs: mustprogress nounwind uwtable
define linkonce_odr hidden noundef ptr @_ZNK3sat6clause5beginEv(ptr noundef nonnull align 4 dereferenceable(20) %this) #4 comdat align 2 {
entry:
  %this.addr = alloca ptr, align 8
  store ptr %this, ptr %this.addr, align 8
  %this1 = load ptr, ptr %this.addr, align 8
  %m_lits = getelementptr inbounds %"class.sat::clause", ptr %this1, i32 0, i32 5
  %arraydecay = getelementptr inbounds [0 x %"class.sat::literal"], ptr %m_lits, i64 0, i64 0
  ret ptr %arraydecay
}

; Function Attrs: mustprogress nounwind uwtable
define linkonce_odr hidden noundef i32 @_ZNK3sat6clause4sizeEv(ptr noundef nonnull align 4 dereferenceable(20) %this) #4 comdat align 2 {
entry:
  %this.addr = alloca ptr, align 8
  store ptr %this, ptr %this.addr, align 8
  %this1 = load ptr, ptr %this.addr, align 8
  %m_size = getelementptr inbounds %"class.sat::clause", ptr %this1, i32 0, i32 1
  %0 = load i32, ptr %m_size, align 4
  ret i32 %0
}

; Function Attrs: mustprogress nounwind uwtable
define linkonce_odr hidden noundef nonnull align 8 dereferenceable(16) ptr @_ZNSt10__pair_getILm1EE11__const_getIRN3sat6clauseENS2_6statusEEERKT0_RKSt4pairIT_S6_E(ptr noundef nonnull align 8 dereferenceable(24) %__pair) #4 comdat align 2 {
entry:
  %__pair.addr = alloca ptr, align 8
  store ptr %__pair, ptr %__pair.addr, align 8
  %0 = load ptr, ptr %__pair.addr, align 8
  %second = getelementptr inbounds %"struct.std::pair", ptr %0, i32 0, i32 1
  ret ptr %second
}

; Function Attrs: mustprogress nounwind uwtable
define linkonce_odr hidden noundef nonnull align 4 dereferenceable(20) ptr @_ZNSt10__pair_getILm0EE11__const_getIRN3sat6clauseENS2_6statusEEERKT_RKSt4pairIS6_T0_E(ptr noundef nonnull align 8 dereferenceable(24) %__pair) #4 comdat align 2 {
entry:
  %__pair.addr = alloca ptr, align 8
  store ptr %__pair, ptr %__pair.addr, align 8
  %0 = load ptr, ptr %__pair.addr, align 8
  %first = getelementptr inbounds %"struct.std::pair", ptr %0, i32 0, i32 0
  %1 = load ptr, ptr %first, align 8
  ret ptr %1
}

; Function Attrs: mustprogress nounwind uwtable
define linkonce_odr hidden noundef zeroext i1 @_ZNK3sat6status10is_deletedEv(ptr noundef nonnull align 8 dereferenceable(16) %this) #4 comdat align 2 {
entry:
  %this.addr = alloca ptr, align 8
  store ptr %this, ptr %this.addr, align 8
  %this1 = load ptr, ptr %this.addr, align 8
  %m_st = getelementptr inbounds %"class.sat::status", ptr %this1, i32 0, i32 0
  %0 = load i32, ptr %m_st, align 8
  %cmp = icmp eq i32 3, %0
  ret i1 %cmp
}

; Function Attrs: mustprogress uwtable
define hidden noundef zeroext i1 @_ZNK3sat4drat5matchEjPKNS_7literalERKNS_6clauseE(ptr noundef nonnull align 8 dereferenceable(664) %this, i32 noundef %n, ptr noundef %lits, ptr noundef nonnull align 4 dereferenceable(20) %c) #5 align 2 {
entry:
  %retval = alloca i1, align 1
  %this.addr = alloca ptr, align 8
  %n.addr = alloca i32, align 4
  %lits.addr = alloca ptr, align 8
  %c.addr = alloca ptr, align 8
  %i = alloca i32, align 4
  %lit1 = alloca %"class.sat::literal", align 4
  %found = alloca i8, align 1
  %__range2 = alloca ptr, align 8
  %__begin2 = alloca ptr, align 8
  %__end2 = alloca ptr, align 8
  %lit2 = alloca %"class.sat::literal", align 4
  store ptr %this, ptr %this.addr, align 8
  store i32 %n, ptr %n.addr, align 4
  store ptr %lits, ptr %lits.addr, align 8
  store ptr %c, ptr %c.addr, align 8
  %0 = load i32, ptr %n.addr, align 4
  %1 = load ptr, ptr %c.addr, align 8
  %call = call noundef i32 @_ZNK3sat6clause4sizeEv(ptr noundef nonnull align 4 dereferenceable(20) %1)
  %cmp = icmp ne i32 %0, %call
  br i1 %cmp, label %if.then, label %if.end

if.then:                                          ; preds = %entry
  store i1 false, ptr %retval, align 1
  br label %return

if.end:                                           ; preds = %entry
  store i32 0, ptr %i, align 4
  br label %for.cond

for.cond:                                         ; preds = %for.inc13, %if.end
  %2 = load i32, ptr %i, align 4
  %3 = load i32, ptr %n.addr, align 4
  %cmp2 = icmp ult i32 %2, %3
  br i1 %cmp2, label %for.body, label %for.end14

for.body:                                         ; preds = %for.cond
  %4 = load ptr, ptr %lits.addr, align 8
  %5 = load i32, ptr %i, align 4
  %idxprom = zext i32 %5 to i64
  %arrayidx = getelementptr inbounds %"class.sat::literal", ptr %4, i64 %idxprom
  call void @llvm.memcpy.p0.p0.i64(ptr align 4 %lit1, ptr align 4 %arrayidx, i64 4, i1 false)
  store i8 0, ptr %found, align 1
  %6 = load ptr, ptr %c.addr, align 8
  store ptr %6, ptr %__range2, align 8
  %7 = load ptr, ptr %__range2, align 8
  %call3 = call noundef ptr @_ZNK3sat6clause5beginEv(ptr noundef nonnull align 4 dereferenceable(20) %7)
  store ptr %call3, ptr %__begin2, align 8
  %8 = load ptr, ptr %__range2, align 8
  %call4 = call noundef ptr @_ZNK3sat6clause3endEv(ptr noundef nonnull align 4 dereferenceable(20) %8)
  store ptr %call4, ptr %__end2, align 8
  br label %for.cond5

for.cond5:                                        ; preds = %for.inc, %for.body
  %9 = load ptr, ptr %__begin2, align 8
  %10 = load ptr, ptr %__end2, align 8
  %cmp6 = icmp ne ptr %9, %10
  br i1 %cmp6, label %for.body7, label %for.end

for.body7:                                        ; preds = %for.cond5
  %11 = load ptr, ptr %__begin2, align 8
  call void @llvm.memcpy.p0.p0.i64(ptr align 4 %lit2, ptr align 4 %11, i64 4, i1 false)
  %call8 = call noundef zeroext i1 @_ZN3sateqERKNS_7literalES2_(ptr noundef nonnull align 4 dereferenceable(4) %lit1, ptr noundef nonnull align 4 dereferenceable(4) %lit2)
  br i1 %call8, label %if.then9, label %if.end10

if.then9:                                         ; preds = %for.body7
  store i8 1, ptr %found, align 1
  br label %for.end

if.end10:                                         ; preds = %for.body7
  br label %for.inc

for.inc:                                          ; preds = %if.end10
  %12 = load ptr, ptr %__begin2, align 8
  %incdec.ptr = getelementptr inbounds %"class.sat::literal", ptr %12, i32 1
  store ptr %incdec.ptr, ptr %__begin2, align 8
  br label %for.cond5

for.end:                                          ; preds = %if.then9, %for.cond5
  %13 = load i8, ptr %found, align 1
  %tobool = trunc i8 %13 to i1
  br i1 %tobool, label %if.end12, label %if.then11

if.then11:                                        ; preds = %for.end
  store i1 false, ptr %retval, align 1
  br label %return

if.end12:                                         ; preds = %for.end
  br label %for.inc13

for.inc13:                                        ; preds = %if.end12
  %14 = load i32, ptr %i, align 4
  %inc = add i32 %14, 1
  store i32 %inc, ptr %i, align 4
  br label %for.cond, !llvm.loop !28

for.end14:                                        ; preds = %for.cond
  store i1 true, ptr %retval, align 1
  br label %return

return:                                           ; preds = %for.end14, %if.then11, %if.then
  %15 = load i1, ptr %retval, align 1
  ret i1 %15
}

; Function Attrs: mustprogress nounwind uwtable
define linkonce_odr hidden noundef nonnull align 8 dereferenceable(16) ptr @_ZSt3getILm1ERN3sat6clauseENS0_6statusEERKNSt13tuple_elementIXT_ESt4pairIT0_T1_EE4typeERKS8_(ptr noundef nonnull align 8 dereferenceable(24) %__in) #4 comdat {
entry:
  %__in.addr = alloca ptr, align 8
  store ptr %__in, ptr %__in.addr, align 8
  %0 = load ptr, ptr %__in.addr, align 8
  %call = call noundef nonnull align 8 dereferenceable(16) ptr @_ZNSt10__pair_getILm1EE11__const_getIRN3sat6clauseENS2_6statusEEERKT0_RKSt4pairIT_S6_E(ptr noundef nonnull align 8 dereferenceable(24) %0) #3
  ret ptr %call
}

; Function Attrs: mustprogress nounwind uwtable
define linkonce_odr hidden noundef nonnull align 4 dereferenceable(20) ptr @_ZSt3getILm0ERN3sat6clauseENS0_6statusEERKNSt13tuple_elementIXT_ESt4pairIT0_T1_EE4typeERKS8_(ptr noundef nonnull align 8 dereferenceable(24) %__in) #4 comdat {
entry:
  %__in.addr = alloca ptr, align 8
  store ptr %__in, ptr %__in.addr, align 8
  %0 = load ptr, ptr %__in.addr, align 8
  %call = call noundef nonnull align 4 dereferenceable(20) ptr @_ZNSt10__pair_getILm0EE11__const_getIRN3sat6clauseENS2_6statusEEERKT_RKSt4pairIS6_T0_E(ptr noundef nonnull align 8 dereferenceable(24) %0) #3
  ret ptr %call
}

; Function Attrs: mustprogress nounwind uwtable
define linkonce_odr hidden noundef nonnull align 8 dereferenceable(24) ptr @_ZN6vectorISt4pairIRN3sat6clauseENS1_6statusEELb0EjEixEj(ptr noundef nonnull align 8 dereferenceable(8) %this, i32 noundef %idx) #4 comdat align 2 {
entry:
  %this.addr = alloca ptr, align 8
  %idx.addr = alloca i32, align 4
  store ptr %this, ptr %this.addr, align 8
  store i32 %idx, ptr %idx.addr, align 4
  %this1 = load ptr, ptr %this.addr, align 8
  %m_data = getelementptr inbounds %class.vector.6, ptr %this1, i32 0, i32 0
  %0 = load ptr, ptr %m_data, align 8
  %1 = load i32, ptr %idx.addr, align 4
  %idxprom = zext i32 %1 to i64
  %arrayidx = getelementptr inbounds %"struct.std::pair", ptr %0, i64 %idxprom
  ret ptr %arrayidx
}

; Function Attrs: mustprogress nounwind uwtable
define linkonce_odr hidden noundef i32 @_ZNK6vectorISt4pairIRN3sat6clauseENS1_6statusEELb0EjE4sizeEv(ptr noundef nonnull align 8 dereferenceable(8) %this) #4 comdat align 2 {
entry:
  %retval = alloca i32, align 4
  %this.addr = alloca ptr, align 8
  store ptr %this, ptr %this.addr, align 8
  %this1 = load ptr, ptr %this.addr, align 8
  %m_data = getelementptr inbounds %class.vector.6, ptr %this1, i32 0, i32 0
  %0 = load ptr, ptr %m_data, align 8
  %cmp = icmp eq ptr %0, null
  br i1 %cmp, label %if.then, label %if.end

if.then:                                          ; preds = %entry
  store i32 0, ptr %retval, align 4
  br label %return

if.end:                                           ; preds = %entry
  %m_data2 = getelementptr inbounds %class.vector.6, ptr %this1, i32 0, i32 0
  %1 = load ptr, ptr %m_data2, align 8
  %arrayidx = getelementptr inbounds i32, ptr %1, i64 -1
  %2 = load i32, ptr %arrayidx, align 4
  store i32 %2, ptr %retval, align 4
  br label %return

return:                                           ; preds = %if.end, %if.then
  %3 = load i32, ptr %retval, align 4
  ret i32 %3
}

; Function Attrs: mustprogress uwtable
define hidden noundef zeroext i1 @_ZN3sat4drat8containsEjPKNS_7literalE(ptr noundef nonnull align 8 dereferenceable(664) %this, i32 noundef %n, ptr noundef %lits) #5 align 2 {
entry:
  %retval = alloca i1, align 1
  %this.addr = alloca ptr, align 8
  %n.addr = alloca i32, align 4
  %lits.addr = alloca ptr, align 8
  %num_add = alloca i32, align 4
  %num_del = alloca i32, align 4
  %i = alloca i32, align 4
  %0 = alloca ptr, align 8
  %c = alloca ptr, align 8
  %st = alloca ptr, align 8
  store ptr %this, ptr %this.addr, align 8
  store i32 %n, ptr %n.addr, align 4
  store ptr %lits, ptr %lits.addr, align 8
  %this1 = load ptr, ptr %this.addr, align 8
  %m_check = getelementptr inbounds %"class.sat::drat", ptr %this1, i32 0, i32 13
  %1 = load i8, ptr %m_check, align 1
  %tobool = trunc i8 %1 to i1
  br i1 %tobool, label %if.end, label %if.then

if.then:                                          ; preds = %entry
  store i1 true, ptr %retval, align 1
  br label %return

if.end:                                           ; preds = %entry
  store i32 0, ptr %num_add, align 4
  store i32 0, ptr %num_del, align 4
  %m_proof = getelementptr inbounds %"class.sat::drat", ptr %this1, i32 0, i32 6
  %call = call noundef i32 @_ZNK6vectorISt4pairIRN3sat6clauseENS1_6statusEELb0EjE4sizeEv(ptr noundef nonnull align 8 dereferenceable(8) %m_proof)
  store i32 %call, ptr %i, align 4
  br label %for.cond

for.cond:                                         ; preds = %if.end12, %if.end
  %2 = load i32, ptr %i, align 4
  %dec = add i32 %2, -1
  store i32 %dec, ptr %i, align 4
  %cmp = icmp ugt i32 %2, 0
  br i1 %cmp, label %for.body, label %for.end

for.body:                                         ; preds = %for.cond
  %m_proof2 = getelementptr inbounds %"class.sat::drat", ptr %this1, i32 0, i32 6
  %3 = load i32, ptr %i, align 4
  %call3 = call noundef nonnull align 8 dereferenceable(24) ptr @_ZN6vectorISt4pairIRN3sat6clauseENS1_6statusEELb0EjEixEj(ptr noundef nonnull align 8 dereferenceable(8) %m_proof2, i32 noundef %3)
  store ptr %call3, ptr %0, align 8
  %4 = load ptr, ptr %0, align 8
  %call4 = call noundef nonnull align 4 dereferenceable(20) ptr @_ZSt3getILm0ERN3sat6clauseENS0_6statusEERKNSt13tuple_elementIXT_ESt4pairIT0_T1_EE4typeERKS8_(ptr noundef nonnull align 8 dereferenceable(24) %4) #3
  store ptr %call4, ptr %c, align 8
  %5 = load ptr, ptr %0, align 8
  %call5 = call noundef nonnull align 8 dereferenceable(16) ptr @_ZSt3getILm1ERN3sat6clauseENS0_6statusEERKNSt13tuple_elementIXT_ESt4pairIT0_T1_EE4typeERKS8_(ptr noundef nonnull align 8 dereferenceable(24) %5) #3
  store ptr %call5, ptr %st, align 8
  %6 = load i32, ptr %n.addr, align 4
  %7 = load ptr, ptr %lits.addr, align 8
  %8 = load ptr, ptr %c, align 8
  %call6 = call noundef zeroext i1 @_ZNK3sat4drat5matchEjPKNS_7literalERKNS_6clauseE(ptr noundef nonnull align 8 dereferenceable(664) %this1, i32 noundef %6, ptr noundef %7, ptr noundef nonnull align 4 dereferenceable(20) %8)
  br i1 %call6, label %if.then7, label %if.end12

if.then7:                                         ; preds = %for.body
  %9 = load ptr, ptr %st, align 8
  %call8 = call noundef zeroext i1 @_ZNK3sat6status10is_deletedEv(ptr noundef nonnull align 8 dereferenceable(16) %9)
  br i1 %call8, label %if.then9, label %if.else

if.then9:                                         ; preds = %if.then7
  %10 = load i32, ptr %num_del, align 4
  %inc = add i32 %10, 1
  store i32 %inc, ptr %num_del, align 4
  br label %if.end11

if.else:                                          ; preds = %if.then7
  %11 = load i32, ptr %num_add, align 4
  %inc10 = add i32 %11, 1
  store i32 %inc10, ptr %num_add, align 4
  br label %if.end11

if.end11:                                         ; preds = %if.else, %if.then9
  br label %if.end12

if.end12:                                         ; preds = %if.end11, %for.body
  br label %for.cond, !llvm.loop !27

for.end:                                          ; preds = %for.cond
  %12 = load i32, ptr %num_add, align 4
  %13 = load i32, ptr %num_del, align 4
  %cmp13 = icmp ugt i32 %12, %13
  store i1 %cmp13, ptr %retval, align 1
  br label %return

return:                                           ; preds = %for.end, %if.then
  %14 = load i1, ptr %retval, align 1
  ret i1 %14
}