; Function Attrs: mustprogress nofree norecurse nosync nounwind willreturn memory(read, inaccessiblemem: none) uwtable
define hidden noundef zeroext i1 @_ZN3sat4drat8containsEjPKNS_7literalE(ptr nocapture noundef nonnull readonly align 8 dereferenceable(664) %this, i32 noundef %n, ptr nocapture noundef readonly %lits) local_unnamed_addr #8 align 2 {
entry:
  %m_check = getelementptr inbounds i8, ptr %this, i64 643
  %0 = load i8, ptr %m_check, align 1
  %1 = and i8 %0, 1
  %tobool.not = icmp eq i8 %1, 0
  br i1 %tobool.not, label %return, label %if.end

if.end:                                           ; preds = %entry
  %m_proof = getelementptr inbounds i8, ptr %this, i64 608
  %2 = load ptr, ptr %m_proof, align 8
  %cmp.i = icmp eq ptr %2, null
  br i1 %cmp.i, label %for.end, label %_ZNK6vectorISt4pairIRN3sat6clauseENS1_6statusEELb0EjE4sizeEv.exit

_ZNK6vectorISt4pairIRN3sat6clauseENS1_6statusEELb0EjE4sizeEv.exit: ; preds = %if.end
  %arrayidx.i = getelementptr inbounds i8, ptr %2, i64 -4
  %3 = load i32, ptr %arrayidx.i, align 4
  %cmp.not11 = icmp eq i32 %3, 0
  br i1 %cmp.not11, label %for.end, label %for.body.lr.ph

for.body.lr.ph:                                   ; preds = %_ZNK6vectorISt4pairIRN3sat6clauseENS1_6statusEELb0EjE4sizeEv.exit
  %dec10 = add i32 %3, -1
  %cmp213.not.i = icmp eq i32 %n, 0
  %idx.ext.i.i = zext i32 %n to i64
  %add.ptr.i.idx.i = shl nuw nsw i64 %idx.ext.i.i, 2
  %4 = zext i32 %dec10 to i64
  br i1 %cmp213.not.i, label %for.body.us, label %for.body

for.body.us:                                      ; preds = %for.body.lr.ph, %if.end12.us
  %indvars.iv19 = phi i64 [ %indvars.iv.next20, %if.end12.us ], [ %4, %for.body.lr.ph ]
  %num_add.013.us = phi i32 [ %num_add.1.us, %if.end12.us ], [ 0, %for.body.lr.ph ]
  %num_del.012.us = phi i32 [ %num_del.1.us, %if.end12.us ], [ 0, %for.body.lr.ph ]
  %arrayidx.i5.us = getelementptr inbounds %"struct.std::pair", ptr %2, i64 %indvars.iv19
  %5 = load ptr, ptr %arrayidx.i5.us, align 8
  %m_size.i.i.us = getelementptr inbounds i8, ptr %5, i64 4
  %6 = load i32, ptr %m_size.i.i.us, align 4
  %cmp.not.i.us = icmp eq i32 %6, 0
  br i1 %cmp.not.i.us, label %for.cond.preheader.i.us, label %if.end12.us

for.cond.preheader.i.us:                          ; preds = %for.body.us
  %second.i.i.us = getelementptr inbounds i8, ptr %arrayidx.i5.us, i64 8
  %7 = load i32, ptr %second.i.i.us, align 8
  %cmp.i8.us = icmp eq i32 %7, 3
  br i1 %cmp.i8.us, label %if.then9.us, label %if.else.us

if.else.us:                                       ; preds = %for.cond.preheader.i.us
  %inc10.us = add i32 %num_add.013.us, 1
  br label %if.end12.us

if.then9.us:                                      ; preds = %for.cond.preheader.i.us
  %inc.us = add i32 %num_del.012.us, 1
  br label %if.end12.us

if.end12.us:                                      ; preds = %if.then9.us, %if.else.us, %for.body.us
  %num_del.1.us = phi i32 [ %inc.us, %if.then9.us ], [ %num_del.012.us, %if.else.us ], [ %num_del.012.us, %for.body.us ]
  %num_add.1.us = phi i32 [ %num_add.013.us, %if.then9.us ], [ %inc10.us, %if.else.us ], [ %num_add.013.us, %for.body.us ]
  %indvars.iv.next20 = add nsw i64 %indvars.iv19, -1
  %cmp.not.us = icmp eq i64 %indvars.iv19, 0
  br i1 %cmp.not.us, label %for.end, label %for.body.us, !llvm.loop !31

for.body:                                         ; preds = %for.body.lr.ph, %if.end12
  %indvars.iv = phi i64 [ %indvars.iv.next, %if.end12 ], [ %4, %for.body.lr.ph ]
  %num_add.013 = phi i32 [ %num_add.1, %if.end12 ], [ 0, %for.body.lr.ph ]
  %num_del.012 = phi i32 [ %num_del.1, %if.end12 ], [ 0, %for.body.lr.ph ]
  %arrayidx.i5 = getelementptr inbounds %"struct.std::pair", ptr %2, i64 %indvars.iv
  %8 = load ptr, ptr %arrayidx.i5, align 8
  %second.i.i = getelementptr inbounds i8, ptr %arrayidx.i5, i64 8
  %m_size.i.i = getelementptr inbounds i8, ptr %8, i64 4
  %9 = load i32, ptr %m_size.i.i, align 4
  %cmp.not.i = icmp eq i32 %9, %n
  br i1 %cmp.not.i, label %for.cond.preheader.i, label %if.end12

for.cond.preheader.i:                             ; preds = %for.body
  %m_lits.i.ptr.i = getelementptr inbounds i8, ptr %8, i64 20
  %10 = getelementptr i8, ptr %8, i64 %add.ptr.i.idx.i
  %add.ptr.i.ptr.i = getelementptr i8, ptr %10, i64 20
  br label %for.body.i

for.body.i:                                       ; preds = %for.inc13.i, %for.cond.preheader.i
  %indvars.iv.i = phi i64 [ 0, %for.cond.preheader.i ], [ %indvars.iv.next.i, %for.inc13.i ]
  %arrayidx.i7 = getelementptr inbounds %"class.sat::literal", ptr %lits, i64 %indvars.iv.i
  %11 = load i32, ptr %arrayidx.i7, align 4
  br label %for.body7.i

for.cond5.i:                                      ; preds = %for.body7.i
  %incdec.ptr.i = getelementptr inbounds i8, ptr %__begin2.012.i, i64 4
  %cmp6.not.not.i = icmp eq ptr %incdec.ptr.i, %add.ptr.i.ptr.i
  br i1 %cmp6.not.not.i, label %if.end12, label %for.body7.i

for.body7.i:                                      ; preds = %for.cond5.i, %for.body.i
  %__begin2.012.i = phi ptr [ %m_lits.i.ptr.i, %for.body.i ], [ %incdec.ptr.i, %for.cond5.i ]
  %12 = load i32, ptr %__begin2.012.i, align 4
  %cmp.i.i = icmp eq i32 %11, %12
  br i1 %cmp.i.i, label %for.inc13.i, label %for.cond5.i

for.inc13.i:                                      ; preds = %for.body7.i
  %indvars.iv.next.i = add nuw nsw i64 %indvars.iv.i, 1
  %exitcond.not.i = icmp eq i64 %indvars.iv.next.i, %idx.ext.i.i
  br i1 %exitcond.not.i, label %if.then7.loopexit, label %for.body.i, !llvm.loop !30

if.then7.loopexit:                                ; preds = %for.inc13.i
  %13 = load i32, ptr %second.i.i, align 8
  %cmp.i8 = icmp eq i32 %13, 3
  br i1 %cmp.i8, label %if.then9, label %if.else

if.then9:                                         ; preds = %if.then7.loopexit
  %inc = add i32 %num_del.012, 1
  br label %if.end12

if.else:                                          ; preds = %if.then7.loopexit
  %inc10 = add i32 %num_add.013, 1
  br label %if.end12

if.end12:                                         ; preds = %for.cond5.i, %for.body, %if.then9, %if.else
  %num_del.1 = phi i32 [ %inc, %if.then9 ], [ %num_del.012, %if.else ], [ %num_del.012, %for.body ], [ %num_del.012, %for.cond5.i ]
  %num_add.1 = phi i32 [ %num_add.013, %if.then9 ], [ %inc10, %if.else ], [ %num_add.013, %for.body ], [ %num_add.013, %for.cond5.i ]
  %indvars.iv.next = add nsw i64 %indvars.iv, -1
  %cmp.not = icmp eq i64 %indvars.iv, 0
  br i1 %cmp.not, label %for.end, label %for.body, !llvm.loop !31

for.end:                                          ; preds = %if.end12, %if.end12.us, %if.end, %_ZNK6vectorISt4pairIRN3sat6clauseENS1_6statusEELb0EjE4sizeEv.exit
  %num_del.0.lcssa = phi i32 [ 0, %_ZNK6vectorISt4pairIRN3sat6clauseENS1_6statusEELb0EjE4sizeEv.exit ], [ 0, %if.end ], [ %num_del.1.us, %if.end12.us ], [ %num_del.1, %if.end12 ]
  %num_add.0.lcssa = phi i32 [ 0, %_ZNK6vectorISt4pairIRN3sat6clauseENS1_6statusEELb0EjE4sizeEv.exit ], [ 0, %if.end ], [ %num_add.1.us, %if.end12.us ], [ %num_add.1, %if.end12 ]
  %cmp13 = icmp ugt i32 %num_add.0.lcssa, %num_del.0.lcssa
  br label %return

return:                                           ; preds = %entry, %for.end
  %retval.0 = phi i1 [ %cmp13, %for.end ], [ true, %entry ]
  ret i1 %retval.0
}